; Function Attrs: nounwind uwtable
define ptr @l_Lean_throwKernelException___at_Lean_mkNoConfusionCore___spec__2___lambda__1___boxed(ptr noundef %0, ptr noundef %1, ptr noundef %2, ptr noundef %3, ptr noundef %4, ptr noundef %5, ptr noundef %6) local_unnamed_addr #0 {
  %8 = getelementptr inbounds nuw i8, ptr %4, i64 24
  %9 = load ptr, ptr %8, align 8, !tbaa !10
  %10 = ptrtoint ptr %9 to i64
  %11 = and i64 %10, 1
  %.not.i21 = icmp eq i64 %11, 0
  br i1 %.not.i21, label %12, label %lean_inc.exit.i

12:                                               ; preds = %7
  %.val.i.i = load i32, ptr %9, align 4, !tbaa !4
  %13 = icmp sgt i32 %.val.i.i, 0
  br i1 %13, label %14, label %16, !prof !9

14:                                               ; preds = %12
  %15 = add nuw i32 %.val.i.i, 1
  store i32 %15, ptr %9, align 4, !tbaa !4
  br label %lean_inc.exit.i

16:                                               ; preds = %12
  %.not.i12.i = icmp eq i32 %.val.i.i, 0
  br i1 %.not.i12.i, label %lean_inc.exit.i, label %17

17:                                               ; preds = %16
  tail call void @lean_inc_ref_cold(ptr noundef nonnull %9) #4
  br label %lean_inc.exit.i

lean_inc.exit.i:                                  ; preds = %17, %16, %14, %7
  %18 = tail call ptr @l_Lean_Kernel_Exception_toMessageData(ptr noundef %0, ptr noundef %9) #4
  %19 = tail call ptr @l_Lean_throwError___at_Lean_mkNoConfusionCore___spec__3(ptr noundef %18, ptr noundef %2, ptr noundef %3, ptr noundef nonnull %4, ptr noundef %5, ptr noundef %6)
  %20 = ptrtoint ptr %4 to i64
  %21 = and i64 %20, 1
  %.not13.i = icmp eq i64 %21, 0
  br i1 %.not13.i, label %22, label %l_Lean_throwKernelException___at_Lean_mkNoConfusionCore___spec__2___lambda__1.exit

22:                                               ; preds = %lean_inc.exit.i
  %23 = load i32, ptr %4, align 4, !tbaa !4
  %24 = icmp sgt i32 %23, 1
  br i1 %24, label %25, label %27, !prof !9

25:                                               ; preds = %22
  %26 = add nsw i32 %23, -1
  store i32 %26, ptr %4, align 4, !tbaa !4
  br label %l_Lean_throwKernelException___at_Lean_mkNoConfusionCore___spec__2___lambda__1.exit

27:                                               ; preds = %22
  %.not.i.i = icmp eq i32 %23, 0
  br i1 %.not.i.i, label %l_Lean_throwKernelException___at_Lean_mkNoConfusionCore___spec__2___lambda__1.exit, label %28

28:                                               ; preds = %27
  tail call void @lean_dec_ref_cold(ptr noundef nonnull %4) #4
  br label %l_Lean_throwKernelException___at_Lean_mkNoConfusionCore___spec__2___lambda__1.exit

l_Lean_throwKernelException___at_Lean_mkNoConfusionCore___spec__2___lambda__1.exit: ; preds = %lean_inc.exit.i, %25, %27, %28
  %29 = ptrtoint ptr %5 to i64
  %30 = and i64 %29, 1
  %.not = icmp eq i64 %30, 0
  br i1 %.not, label %31, label %lean_dec.exit14

31:                                               ; preds = %l_Lean_throwKernelException___at_Lean_mkNoConfusionCore___spec__2___lambda__1.exit
  %32 = load i32, ptr %5, align 4, !tbaa !4
  %33 = icmp sgt i32 %32, 1
  br i1 %33, label %34, label %36, !prof !9

34:                                               ; preds = %31
  %35 = add nsw i32 %32, -1
  store i32 %35, ptr %5, align 4, !tbaa !4
  br label %lean_dec.exit14

36:                                               ; preds = %31
  %.not.i = icmp eq i32 %32, 0
  br i1 %.not.i, label %lean_dec.exit14, label %37

37:                                               ; preds = %36
  tail call void @lean_dec_ref_cold(ptr noundef nonnull %5) #4
  br label %lean_dec.exit14

lean_dec.exit14:                                  ; preds = %37, %36, %34, %l_Lean_throwKernelException___at_Lean_mkNoConfusionCore___spec__2___lambda__1.exit
  %38 = ptrtoint ptr %3 to i64
  %39 = and i64 %38, 1
  %.not22 = icmp eq i64 %39, 0
  br i1 %.not22, label %40, label %lean_dec.exit13

40:                                               ; preds = %lean_dec.exit14
  %41 = load i32, ptr %3, align 4, !tbaa !4
  %42 = icmp sgt i32 %41, 1
  br i1 %42, label %43, label %45, !prof !9

43:                                               ; preds = %40
  %44 = add nsw i32 %41, -1
  store i32 %44, ptr %3, align 4, !tbaa !4
  br label %lean_dec.exit13

45:                                               ; preds = %40
  %.not.i15 = icmp eq i32 %41, 0
  br i1 %.not.i15, label %lean_dec.exit13, label %46

46:                                               ; preds = %45
  tail call void @lean_dec_ref_cold(ptr noundef nonnull %3) #4
  br label %lean_dec.exit13

lean_dec.exit13:                                  ; preds = %46, %45, %43, %lean_dec.exit14
  %47 = ptrtoint ptr %2 to i64
  %48 = and i64 %47, 1
  %.not23 = icmp eq i64 %48, 0
  br i1 %.not23, label %49, label %lean_dec.exit12

49:                                               ; preds = %lean_dec.exit13
  %50 = load i32, ptr %2, align 4, !tbaa !4
  %51 = icmp sgt i32 %50, 1
  br i1 %51, label %52, label %54, !prof !9

52:                                               ; preds = %49
  %53 = add nsw i32 %50, -1
  store i32 %53, ptr %2, align 4, !tbaa !4
  br label %lean_dec.exit12

54:                                               ; preds = %49
  %.not.i17 = icmp eq i32 %50, 0
  br i1 %.not.i17, label %lean_dec.exit12, label %55

55:                                               ; preds = %54
  tail call void @lean_dec_ref_cold(ptr noundef nonnull %2) #4
  br label %lean_dec.exit12

lean_dec.exit12:                                  ; preds = %55, %54, %52, %lean_dec.exit13
  %56 = ptrtoint ptr %1 to i64
  %57 = and i64 %56, 1
  %.not24 = icmp eq i64 %57, 0
  br i1 %.not24, label %58, label %lean_dec.exit

58:                                               ; preds = %lean_dec.exit12
  %59 = load i32, ptr %1, align 4, !tbaa !4
  %60 = icmp sgt i32 %59, 1
  br i1 %60, label %61, label %63, !prof !9

61:                                               ; preds = %58
  %62 = add nsw i32 %59, -1
  store i32 %62, ptr %1, align 4, !tbaa !4
  br label %lean_dec.exit

63:                                               ; preds = %58
  %.not.i19 = icmp eq i32 %59, 0
  br i1 %.not.i19, label %lean_dec.exit, label %64

64:                                               ; preds = %63
  tail call void @lean_dec_ref_cold(ptr noundef nonnull %1) #4
  br label %lean_dec.exit

lean_dec.exit:                                    ; preds = %64, %63, %61, %lean_dec.exit12
  ret ptr %19
}